target datalayout = "e-m:e-p270:32:32-p271:32:32-p272:64:64-i64:64-i128:128-f80:128-n8:16:32:64-S128"
target triple = "x86_64-pc-linux-gnu"

%struct.AVFilterContext = type { ptr, ptr, ptr, ptr, ptr, i32, ptr, ptr, i32, ptr, ptr, i32, i32, ptr, ptr, ptr, ptr, i32, ptr, i32, i32 }
%struct.ScaleContext = type { ptr, ptr, %struct.FFFrameSync, i32, i32, ptr, [2 x double], i32, i32, i32, i32, i32, ptr, ptr, ptr, ptr, [41 x double], ptr, i32, i32, i32, i32, i32, i32, i32, i32, i32, i32, i32, i32, i32, i32, i32, i32, i32, i32 }
%struct.FFFrameSync = type { ptr, ptr, i32, %struct.AVRational, i64, ptr, ptr, i32, i32, i8, i8, ptr, i32, i32, i32, i32 }
%struct.AVRational = type { i32, i32 }

; Function Attrs: cold nounwind optsize uwtable
define internal void @uninit(ptr noundef %0) #0 {
  %2 = alloca ptr, align 8
  %3 = alloca ptr, align 8
  store ptr %0, ptr %2, align 8, !tbaa !4
  call void @llvm.lifetime.start.p0(i64 8, ptr %3) #12
  %4 = load ptr, ptr %2, align 8, !tbaa !4
  %5 = getelementptr inbounds nuw %struct.AVFilterContext, ptr %4, i32 0, i32 9
  %6 = load ptr, ptr %5, align 8, !tbaa !9
  store ptr %6, ptr %3, align 8, !tbaa !22
  %7 = load ptr, ptr %3, align 8, !tbaa !22
  %8 = getelementptr inbounds nuw %struct.ScaleContext, ptr %7, i32 0, i32 14
  %9 = load ptr, ptr %8, align 8, !tbaa !64
  call void @av_expr_free(ptr noundef %9)
  %10 = load ptr, ptr %3, align 8, !tbaa !22
  %11 = getelementptr inbounds nuw %struct.ScaleContext, ptr %10, i32 0, i32 15
  %12 = load ptr, ptr %11, align 8, !tbaa !65
  call void @av_expr_free(ptr noundef %12)
  %13 = load ptr, ptr %3, align 8, !tbaa !22
  %14 = getelementptr inbounds nuw %struct.ScaleContext, ptr %13, i32 0, i32 15
  store ptr null, ptr %14, align 8, !tbaa !65
  %15 = load ptr, ptr %3, align 8, !tbaa !22
  %16 = getelementptr inbounds nuw %struct.ScaleContext, ptr %15, i32 0, i32 14
  store ptr null, ptr %16, align 8, !tbaa !64
  %17 = load ptr, ptr %3, align 8, !tbaa !22
  %18 = getelementptr inbounds nuw %struct.ScaleContext, ptr %17, i32 0, i32 2
  call void @ff_framesync_uninit(ptr noundef %18)
  %19 = load ptr, ptr %3, align 8, !tbaa !22
  %20 = getelementptr inbounds nuw %struct.ScaleContext, ptr %19, i32 0, i32 1
  call void @sws_free_context(ptr noundef %20)
  call void @llvm.lifetime.end.p0(i64 8, ptr %3) #12
  ret void
}